; ModuleID = 'probe5.5e1ab8ff-cgu.0'
source_filename = "probe5.5e1ab8ff-cgu.0"
target datalayout = "e-m:e-p:32:32-p270:32:32-p271:32:32-p272:64:64-f64:32:64-f80:32-n8:16:32-S128"
target triple = "i686-unknown-linux-android"

@alloc3 = private unnamed_addr constant <{ [75 x i8] }> <{ [75 x i8] c"/rustc/d5a82bbd26e1ad8b7401f6a718a9c57c96905483/library/core/src/num/mod.rs" }>, align 1
@alloc4 = private unnamed_addr constant <{ ptr, [12 x i8] }> <{ ptr @alloc3, [12 x i8] c"K\00\00\00\99\03\00\00\05\00\00\00" }>, align 4
@str.0 = internal constant [25 x i8] c"attempt to divide by zero"

; probe5::probe
; Function Attrs: nonlazybind uwtable
define void @_ZN6probe55probe17h3bbad1cbe721f5ceE() unnamed_addr #0 {
start:
  %0 = call i1 @llvm.expect.i1(i1 false, i1 false)
  br i1 %0, label %panic.i, label %"_ZN4core3num21_$LT$impl$u20$u32$GT$10div_euclid17h3d3578bb02a7ba32E.exit"

panic.i:                                          ; preds = %start
; call core::panicking::panic
  call void @_ZN4core9panicking5panic17ha286088cd970a747E(ptr align 1 @str.0, i32 25, ptr align 4 @alloc4) #3
  unreachable

"_ZN4core3num21_$LT$impl$u20$u32$GT$10div_euclid17h3d3578bb02a7ba32E.exit": ; preds = %start
  ret void
}

; Function Attrs: nocallback nofree nosync nounwind readnone willreturn
declare i1 @llvm.expect.i1(i1, i1) #1

; core::panicking::panic
; Function Attrs: cold noinline noreturn nonlazybind uwtable
declare void @_ZN4core9panicking5panic17ha286088cd970a747E(ptr align 1, i32, ptr align 4) unnamed_addr #2

attributes #0 = { nonlazybind uwtable "probe-stack"="__rust_probestack" "target-cpu"="pentiumpro" "target-features"="+mmx,+sse,+sse2,+sse3,+ssse3" }
attributes #1 = { nocallback nofree nosync nounwind readnone willreturn }
attributes #2 = { cold noinline noreturn nonlazybind uwtable "probe-stack"="__rust_probestack" "target-cpu"="pentiumpro" "target-features"="+mmx,+sse,+sse2,+sse3,+ssse3" }
attributes #3 = { noreturn }

!llvm.module.flags = !{!0, !1}

!0 = !{i32 7, !"PIC Level", i32 2}
!1 = !{i32 2, !"RtLibUseGOT", i32 1}
